; Function Attrs: mustprogress uwtable
define noundef nonnull align 8 dereferenceable(64) ptr @_ZN6icu_758TimeZone11getCustomIDERKNS_13UnicodeStringERS1_R10UErrorCode(ptr noundef nonnull align 8 dereferenceable(64) %id, ptr noundef nonnull returned align 8 dereferenceable(64) %normalized, ptr nocapture noundef nonnull align 4 dereferenceable(4) %status) local_unnamed_addr #0 align 2 {
entry:
  %sign = alloca i32, align 4
  %hour = alloca i32, align 4
  %min = alloca i32, align 4
  %sec = alloca i32, align 4
  %fUnion.i.i = getelementptr inbounds i8, ptr %normalized, i64 8
  %0 = load i16, ptr %fUnion.i.i, align 8
  %conv2.i3.i = and i16 %0, 1
  %tobool.not.i = icmp eq i16 %conv2.i3.i, 0
  %1 = and i16 %0, 30
  %storemerge.i = select i1 %tobool.not.i, i16 %1, i16 2
  store i16 %storemerge.i, ptr %fUnion.i.i, align 8
  %2 = load i32, ptr %status, align 4
  %cmp.i = icmp slt i32 %2, 1
  br i1 %cmp.i, label %if.end, label %return

if.end:                                           ; preds = %entry
  %call2 = call noundef signext i8 @_ZN6icu_758TimeZone13parseCustomIDERKNS_13UnicodeStringERiS4_S4_S4_(ptr noundef nonnull align 8 dereferenceable(64) %id, ptr noundef nonnull align 4 dereferenceable(4) %sign, ptr noundef nonnull align 4 dereferenceable(4) %hour, ptr noundef nonnull align 4 dereferenceable(4) %min, ptr noundef nonnull align 4 dereferenceable(4) %sec), !range !5
  %tobool3.not = icmp eq i8 %call2, 0
  br i1 %tobool3.not, label %if.else, label %if.then4

if.then4:                                         ; preds = %if.end
  %3 = load i32, ptr %hour, align 4
  %4 = load i32, ptr %min, align 4
  %5 = load i32, ptr %sec, align 4
  %6 = load i32, ptr %sign, align 4
  %.lobit = lshr i32 %6, 31
  %conv = trunc i32 %.lobit to i8
  %call5 = tail call noundef nonnull align 8 dereferenceable(64) ptr @_ZN6icu_758TimeZone14formatCustomIDEiiiaRNS_13UnicodeStringE(i32 noundef %3, i32 noundef %4, i32 noundef %5, i8 noundef signext %conv, ptr noundef nonnull align 8 dereferenceable(64) %normalized)
  br label %return

if.else:                                          ; preds = %if.end
  store i32 1, ptr %status, align 4
  br label %return

return:                                           ; preds = %if.then4, %if.else, %entry
  ret ptr %normalized
}